; Function Attrs: nounwind uwtable
define void @Saig_ManDupCones_rec(ptr noundef %0, ptr noundef %1, ptr noundef %2, ptr noundef %3, ptr noundef %4) local_unnamed_addr #0 {
  %6 = getelementptr i8, ptr %0, i64 312
  %.val39 = load i32, ptr %6, align 8, !tbaa !97
  %7 = getelementptr i8, ptr %1, i64 32
  %.val4068 = load i32, ptr %7, align 8, !tbaa !98
  %.not69 = icmp eq i32 %.val4068, %.val39
  br i1 %.not69, label %Saig_ObjIsPi.exit.thread, label %.lr.ph

.lr.ph:                                           ; preds = %5, %tailrecurse
  %8 = phi ptr [ %59, %tailrecurse ], [ %7, %5 ]
  %.tr6270 = phi ptr [ %58, %tailrecurse ], [ %1, %5 ]
  store i32 %.val39, ptr %8, align 8, !tbaa !98
  %9 = getelementptr i8, ptr %.tr6270, i64 24
  %.val = load i64, ptr %9, align 8
  %10 = trunc i64 %.val to i32
  %11 = and i32 %10, 7
  %12 = add nsw i32 %11, -7
  %narrow.i = icmp ult i32 %12, -2
  br i1 %narrow.i, label %53, label %13

13:                                               ; preds = %.lr.ph
  %14 = getelementptr i8, ptr %.tr6270, i64 8
  %.val37 = load ptr, ptr %14, align 8, !tbaa !33
  %15 = ptrtoint ptr %.val37 to i64
  %16 = and i64 %15, -2
  %17 = inttoptr i64 %16 to ptr
  tail call void @Saig_ManDupCones_rec(ptr noundef nonnull %0, ptr noundef %17, ptr noundef %2, ptr noundef %3, ptr noundef %4)
  %18 = getelementptr i8, ptr %.tr6270, i64 16
  %.val38 = load ptr, ptr %18, align 8, !tbaa !34
  %19 = ptrtoint ptr %.val38 to i64
  %20 = and i64 %19, -2
  %21 = inttoptr i64 %20 to ptr
  tail call void @Saig_ManDupCones_rec(ptr noundef nonnull %0, ptr noundef %21, ptr noundef %2, ptr noundef %3, ptr noundef %4)
  %22 = getelementptr inbounds nuw i8, ptr %3, i64 4
  %23 = load i32, ptr %22, align 4, !tbaa !26
  %24 = load i32, ptr %3, align 8, !tbaa !99
  %25 = icmp eq i32 %23, %24
  br i1 %25, label %26, label %.Vec_PtrGrow.exit11_crit_edge.i

.Vec_PtrGrow.exit11_crit_edge.i:                  ; preds = %13
  %.phi.trans.insert.i = getelementptr inbounds nuw i8, ptr %3, i64 8
  %.pre.i = load ptr, ptr %.phi.trans.insert.i, align 8, !tbaa !29
  br label %Vec_PtrPush.exit

26:                                               ; preds = %13
  %27 = icmp slt i32 %23, 16
  br i1 %27, label %28, label %36

28:                                               ; preds = %26
  %29 = getelementptr inbounds nuw i8, ptr %3, i64 8
  %30 = load ptr, ptr %29, align 8, !tbaa !29
  %.not9.i.i = icmp eq ptr %30, null
  br i1 %.not9.i.i, label %33, label %31

31:                                               ; preds = %28
  %32 = tail call dereferenceable_or_null(128) ptr @realloc(ptr noundef nonnull %30, i64 noundef 128) #12
  br label %Vec_PtrGrow.exit.i

33:                                               ; preds = %28
  %34 = tail call noalias dereferenceable_or_null(128) ptr @malloc(i64 noundef 128) #11
  br label %Vec_PtrGrow.exit.i

Vec_PtrGrow.exit.i:                               ; preds = %33, %31
  %35 = phi ptr [ %32, %31 ], [ %34, %33 ]
  store ptr %35, ptr %29, align 8, !tbaa !29
  store i32 16, ptr %3, align 8, !tbaa !99
  br label %Vec_PtrPush.exit

36:                                               ; preds = %26
  %37 = shl nuw nsw i32 %23, 1
  %38 = getelementptr inbounds nuw i8, ptr %3, i64 8
  %39 = load ptr, ptr %38, align 8, !tbaa !29
  %.not9.i10.i = icmp eq ptr %39, null
  %40 = zext nneg i32 %37 to i64
  %41 = shl nuw nsw i64 %40, 3
  br i1 %.not9.i10.i, label %44, label %42

42:                                               ; preds = %36
  %43 = tail call ptr @realloc(ptr noundef nonnull %39, i64 noundef %41) #12
  br label %46

44:                                               ; preds = %36
  %45 = tail call noalias ptr @malloc(i64 noundef %41) #11
  br label %46

46:                                               ; preds = %44, %42
  %47 = phi ptr [ %43, %42 ], [ %45, %44 ]
  store ptr %47, ptr %38, align 8, !tbaa !29
  store i32 %37, ptr %3, align 8, !tbaa !99
  br label %Vec_PtrPush.exit

Vec_PtrPush.exit:                                 ; preds = %.Vec_PtrGrow.exit11_crit_edge.i, %Vec_PtrGrow.exit.i, %46
  %48 = phi ptr [ %.pre.i, %.Vec_PtrGrow.exit11_crit_edge.i ], [ %47, %46 ], [ %35, %Vec_PtrGrow.exit.i ]
  %49 = load i32, ptr %22, align 4, !tbaa !26
  %50 = add nsw i32 %49, 1
  store i32 %50, ptr %22, align 4, !tbaa !26
  %51 = sext i32 %49 to i64
  %52 = getelementptr inbounds ptr, ptr %48, i64 %51
  store ptr %.tr6270, ptr %52, align 8, !tbaa !30
  br label %Saig_ObjIsPi.exit.thread

53:                                               ; preds = %.lr.ph
  %54 = and i64 %.val, 7
  switch i64 %54, label %Saig_ObjIsPi.exit.thread [
    i64 3, label %tailrecurse
    i64 2, label %Saig_ObjIsLo.exit
  ]

tailrecurse:                                      ; preds = %53
  %55 = getelementptr i8, ptr %.tr6270, i64 8
  %.val36 = load ptr, ptr %55, align 8, !tbaa !33
  %56 = ptrtoint ptr %.val36 to i64
  %57 = and i64 %56, -2
  %58 = inttoptr i64 %57 to ptr
  %59 = getelementptr i8, ptr %58, i64 32
  %.val40 = load i32, ptr %59, align 8, !tbaa !98
  %.not = icmp eq i32 %.val40, %.val39
  br i1 %.not, label %Saig_ObjIsPi.exit.thread, label %.lr.ph

Saig_ObjIsLo.exit:                                ; preds = %53
  %.val4.i = load i32, ptr %.tr6270, align 8, !tbaa !24
  %60 = getelementptr i8, ptr %0, i64 108
  %.val.i = load i32, ptr %60, align 4, !tbaa !48
  %.not60 = icmp slt i32 %.val4.i, %.val.i
  br i1 %.not60, label %Saig_ObjIsPi.exit, label %61

61:                                               ; preds = %Saig_ObjIsLo.exit
  %62 = getelementptr inbounds nuw i8, ptr %0, i64 24
  %63 = load ptr, ptr %62, align 8, !tbaa !37
  %64 = getelementptr i8, ptr %0, i64 112
  %.val4.i44 = load i32, ptr %64, align 8, !tbaa !36
  %65 = add nsw i32 %.val4.i44, %.val4.i
  %66 = sub i32 %65, %.val.i
  %67 = getelementptr i8, ptr %63, i64 8
  %.val.i45 = load ptr, ptr %67, align 8, !tbaa !29
  %68 = sext i32 %66 to i64
  %69 = getelementptr inbounds ptr, ptr %.val.i45, i64 %68
  %70 = load ptr, ptr %69, align 8, !tbaa !30
  %71 = getelementptr inbounds nuw i8, ptr %4, i64 4
  %72 = load i32, ptr %71, align 4, !tbaa !26
  %73 = load i32, ptr %4, align 8, !tbaa !99
  %74 = icmp eq i32 %72, %73
  br i1 %74, label %75, label %.Vec_PtrGrow.exit11_crit_edge.i46

.Vec_PtrGrow.exit11_crit_edge.i46:                ; preds = %61
  %.phi.trans.insert.i47 = getelementptr inbounds nuw i8, ptr %4, i64 8
  %.pre.i48 = load ptr, ptr %.phi.trans.insert.i47, align 8, !tbaa !29
  br label %Vec_PtrPush.exit52

75:                                               ; preds = %61
  %76 = icmp slt i32 %72, 16
  br i1 %76, label %77, label %85

77:                                               ; preds = %75
  %78 = getelementptr inbounds nuw i8, ptr %4, i64 8
  %79 = load ptr, ptr %78, align 8, !tbaa !29
  %.not9.i.i50 = icmp eq ptr %79, null
  br i1 %.not9.i.i50, label %82, label %80

80:                                               ; preds = %77
  %81 = tail call dereferenceable_or_null(128) ptr @realloc(ptr noundef nonnull %79, i64 noundef 128) #12
  br label %Vec_PtrGrow.exit.i51

82:                                               ; preds = %77
  %83 = tail call noalias dereferenceable_or_null(128) ptr @malloc(i64 noundef 128) #11
  br label %Vec_PtrGrow.exit.i51

Vec_PtrGrow.exit.i51:                             ; preds = %82, %80
  %84 = phi ptr [ %81, %80 ], [ %83, %82 ]
  store ptr %84, ptr %78, align 8, !tbaa !29
  store i32 16, ptr %4, align 8, !tbaa !99
  br label %Vec_PtrPush.exit52

85:                                               ; preds = %75
  %86 = shl nuw nsw i32 %72, 1
  %87 = getelementptr inbounds nuw i8, ptr %4, i64 8
  %88 = load ptr, ptr %87, align 8, !tbaa !29
  %.not9.i10.i49 = icmp eq ptr %88, null
  %89 = zext nneg i32 %86 to i64
  %90 = shl nuw nsw i64 %89, 3
  br i1 %.not9.i10.i49, label %93, label %91

91:                                               ; preds = %85
  %92 = tail call ptr @realloc(ptr noundef nonnull %88, i64 noundef %90) #12
  br label %95

93:                                               ; preds = %85
  %94 = tail call noalias ptr @malloc(i64 noundef %90) #11
  br label %95

95:                                               ; preds = %93, %91
  %96 = phi ptr [ %92, %91 ], [ %94, %93 ]
  store ptr %96, ptr %87, align 8, !tbaa !29
  store i32 %86, ptr %4, align 8, !tbaa !99
  br label %Vec_PtrPush.exit52

Vec_PtrPush.exit52:                               ; preds = %.Vec_PtrGrow.exit11_crit_edge.i46, %Vec_PtrGrow.exit.i51, %95
  %97 = phi ptr [ %.pre.i48, %.Vec_PtrGrow.exit11_crit_edge.i46 ], [ %96, %95 ], [ %84, %Vec_PtrGrow.exit.i51 ]
  %98 = load i32, ptr %71, align 4, !tbaa !26
  %99 = add nsw i32 %98, 1
  store i32 %99, ptr %71, align 4, !tbaa !26
  %100 = sext i32 %98 to i64
  %101 = getelementptr inbounds ptr, ptr %97, i64 %100
  store ptr %70, ptr %101, align 8, !tbaa !30
  br label %Saig_ObjIsPi.exit.thread

Saig_ObjIsPi.exit:                                ; preds = %Saig_ObjIsLo.exit
  tail call fastcc void @Vec_PtrPush(ptr noundef %2, ptr noundef nonnull %.tr6270)
  br label %Saig_ObjIsPi.exit.thread

Saig_ObjIsPi.exit.thread:                         ; preds = %tailrecurse, %53, %5, %Saig_ObjIsPi.exit, %Vec_PtrPush.exit52, %Vec_PtrPush.exit
  ret void
}